; Function Attrs: mustprogress nofree norecurse nosync nounwind willreturn memory(readwrite, inaccessiblemem: none) uwtable
define internal range(i32 -1, 1) i32 @php_sqlite3_stream_seek(ptr noundef captures(none) %0, i64 noundef %1, i32 noundef %2, ptr noundef writeonly captures(none) initializes((0, 8)) %3) #13 {
  %5 = getelementptr inbounds nuw i8, ptr %0, i64 8
  %6 = load ptr, ptr %5, align 8, !tbaa !186
  switch i32 %2, label %57 [
    i32 1, label %7
    i32 0, label %30
    i32 2, label %40
  ]

7:                                                ; preds = %4
  %8 = icmp slt i64 %1, 0
  %9 = getelementptr inbounds nuw i8, ptr %6, i64 8
  %10 = load i64, ptr %9, align 8, !tbaa !124
  br i1 %8, label %11, label %20

11:                                               ; preds = %7
  %12 = sub nsw i64 0, %1
  %13 = icmp ult i64 %10, %12
  br i1 %13, label %14, label %15

14:                                               ; preds = %11
  store i64 0, ptr %9, align 8, !tbaa !124
  store i64 -1, ptr %3, align 8, !tbaa !4
  br label %60

15:                                               ; preds = %11
  %16 = add i64 %10, %1
  store i64 %16, ptr %9, align 8, !tbaa !124
  store i64 %16, ptr %3, align 8, !tbaa !4
  %17 = getelementptr inbounds nuw i8, ptr %0, i64 96
  %18 = load i16, ptr %17, align 8
  %19 = and i16 %18, -9
  store i16 %19, ptr %17, align 8
  br label %60

20:                                               ; preds = %7
  %21 = add i64 %10, %1
  %22 = getelementptr inbounds nuw i8, ptr %6, i64 16
  %23 = load i64, ptr %22, align 8, !tbaa !125
  %24 = icmp ugt i64 %21, %23
  br i1 %24, label %25, label %26

25:                                               ; preds = %20
  store i64 %23, ptr %9, align 8, !tbaa !124
  store i64 -1, ptr %3, align 8, !tbaa !4
  br label %60

26:                                               ; preds = %20
  store i64 %21, ptr %9, align 8, !tbaa !124
  store i64 %21, ptr %3, align 8, !tbaa !4
  %27 = getelementptr inbounds nuw i8, ptr %0, i64 96
  %28 = load i16, ptr %27, align 8
  %29 = and i16 %28, -9
  store i16 %29, ptr %27, align 8
  br label %60

30:                                               ; preds = %4
  %31 = getelementptr inbounds nuw i8, ptr %6, i64 16
  %32 = load i64, ptr %31, align 8, !tbaa !125
  %33 = icmp ult i64 %32, %1
  %34 = getelementptr inbounds nuw i8, ptr %6, i64 8
  br i1 %33, label %35, label %36

35:                                               ; preds = %30
  store i64 %32, ptr %34, align 8, !tbaa !124
  store i64 -1, ptr %3, align 8, !tbaa !4
  br label %60

36:                                               ; preds = %30
  store i64 %1, ptr %34, align 8, !tbaa !124
  store i64 %1, ptr %3, align 8, !tbaa !4
  %37 = getelementptr inbounds nuw i8, ptr %0, i64 96
  %38 = load i16, ptr %37, align 8
  %39 = and i16 %38, -9
  store i16 %39, ptr %37, align 8
  br label %60

40:                                               ; preds = %4
  %41 = icmp sgt i64 %1, 0
  %42 = getelementptr inbounds nuw i8, ptr %6, i64 16
  %43 = load i64, ptr %42, align 8, !tbaa !125
  br i1 %41, label %44, label %46

44:                                               ; preds = %40
  %45 = getelementptr inbounds nuw i8, ptr %6, i64 8
  store i64 %43, ptr %45, align 8, !tbaa !124
  store i64 -1, ptr %3, align 8, !tbaa !4
  br label %60

46:                                               ; preds = %40
  %47 = sub nsw i64 0, %1
  %48 = icmp ult i64 %43, %47
  br i1 %48, label %49, label %51

49:                                               ; preds = %46
  %50 = getelementptr inbounds nuw i8, ptr %6, i64 8
  store i64 0, ptr %50, align 8, !tbaa !124
  store i64 -1, ptr %3, align 8, !tbaa !4
  br label %60

51:                                               ; preds = %46
  %52 = add i64 %43, %1
  %53 = getelementptr inbounds nuw i8, ptr %6, i64 8
  store i64 %52, ptr %53, align 8, !tbaa !124
  store i64 %52, ptr %3, align 8, !tbaa !4
  %54 = getelementptr inbounds nuw i8, ptr %0, i64 96
  %55 = load i16, ptr %54, align 8
  %56 = and i16 %55, -9
  store i16 %56, ptr %54, align 8
  br label %60

57:                                               ; preds = %4
  %58 = getelementptr inbounds nuw i8, ptr %6, i64 8
  %59 = load i64, ptr %58, align 8, !tbaa !124
  store i64 %59, ptr %3, align 8, !tbaa !4
  br label %60

60:                                               ; preds = %57, %51, %49, %44, %36, %35, %26, %25, %15, %14
  %.0 = phi i32 [ -1, %57 ], [ -1, %44 ], [ -1, %49 ], [ 0, %51 ], [ -1, %35 ], [ 0, %36 ], [ -1, %14 ], [ 0, %15 ], [ -1, %25 ], [ 0, %26 ]
  ret i32 %.0
}